target datalayout = "e-m:e-p270:32:32-p271:32:32-p272:64:64-i64:64-i128:128-f80:128-n8:16:32:64-S128"
target triple = "x86_64-pc-linux-gnu"

%struct.uv__queue = type { ptr, ptr }
%struct.sockaddr_storage = type { i16, [118 x i8], i64 }
%struct.uv_buf_t = type { ptr, i64 }
%class.anon.4 = type { i8 }
%struct.uv_udp_send_s = type { ptr, i32, [6 x ptr], ptr, ptr, %struct.uv__queue, %struct.sockaddr_storage, i32, ptr, i64, ptr, [4 x %struct.uv_buf_t] }
%"struct.lean::udp_send_data" = type { ptr, ptr, ptr }
%struct.lean_object = type { i32, i32 }

; Function Attrs: alwaysinline mustprogress uwtable
define internal void @_ZL12lean_dec_refP11lean_object(ptr noundef %0) #8 {
  %2 = alloca ptr, align 8
  store ptr %0, ptr %2, align 8, !tbaa !3
  %3 = load ptr, ptr %2, align 8, !tbaa !3
  %4 = getelementptr inbounds nuw %struct.lean_object, ptr %3, i32 0, i32 0
  %5 = load i32, ptr %4, align 4, !tbaa !79
  %6 = icmp sgt i32 %5, 1
  %7 = zext i1 %6 to i64
  %8 = call i64 @llvm.expect.i64(i64 %7, i64 1)
  %9 = icmp ne i64 %8, 0
  br i1 %9, label %10, label %15

10:                                               ; preds = %1
  %11 = load ptr, ptr %2, align 8, !tbaa !3
  %12 = getelementptr inbounds nuw %struct.lean_object, ptr %11, i32 0, i32 0
  %13 = load i32, ptr %12, align 4, !tbaa !79
  %14 = add nsw i32 %13, -1
  store i32 %14, ptr %12, align 4, !tbaa !79
  br label %23

15:                                               ; preds = %1
  %16 = load ptr, ptr %2, align 8, !tbaa !3
  %17 = getelementptr inbounds nuw %struct.lean_object, ptr %16, i32 0, i32 0
  %18 = load i32, ptr %17, align 4, !tbaa !79
  %19 = icmp ne i32 %18, 0
  br i1 %19, label %20, label %22

20:                                               ; preds = %15
  %21 = load ptr, ptr %2, align 8, !tbaa !3
  call void @lean_dec_ref_cold(ptr noundef %21)
  br label %22

22:                                               ; preds = %20, %15
  br label %23

23:                                               ; preds = %22, %10
  ret void
}

; Function Attrs: alwaysinline mustprogress nounwind uwtable
define internal noundef zeroext i1 @_ZL14lean_is_scalarP11lean_object(ptr noundef %0) #11 {
  %2 = alloca ptr, align 8
  store ptr %0, ptr %2, align 8, !tbaa !3
  %3 = load ptr, ptr %2, align 8, !tbaa !3
  %4 = ptrtoint ptr %3 to i64
  %5 = and i64 %4, 1
  %6 = icmp eq i64 %5, 1
  ret i1 %6
}

; Function Attrs: alwaysinline mustprogress uwtable
define internal void @_ZL8lean_decP11lean_object(ptr noundef %0) #8 {
  %2 = alloca ptr, align 8
  store ptr %0, ptr %2, align 8, !tbaa !3
  %3 = load ptr, ptr %2, align 8, !tbaa !3
  %4 = call noundef zeroext i1 @_ZL14lean_is_scalarP11lean_object(ptr noundef %3)
  br i1 %4, label %7, label %5

5:                                                ; preds = %1
  %6 = load ptr, ptr %2, align 8, !tbaa !3
  call void @_ZL12lean_dec_refP11lean_object(ptr noundef %6)
  br label %7

7:                                                ; preds = %5, %1
  ret void
}

; Function Attrs: inlinehint mustprogress uwtable
define internal void @"_ZZ16lean_uv_udp_sendENK3$_0clEP13uv_udp_send_si"(ptr noundef nonnull align 1 dereferenceable(1) %0, ptr noundef %1, i32 noundef %2) #7 align 2 {
  %4 = alloca ptr, align 8
  %5 = alloca ptr, align 8
  %6 = alloca i32, align 4
  %7 = alloca ptr, align 8
  store ptr %0, ptr %4, align 8, !tbaa !3
  store ptr %1, ptr %5, align 8, !tbaa !36
  store i32 %2, ptr %6, align 4, !tbaa !32
  call void @llvm.lifetime.start.p0(i64 8, ptr %7) #14
  %8 = load ptr, ptr %5, align 8, !tbaa !36
  %9 = getelementptr inbounds nuw %struct.uv_udp_send_s, ptr %8, i32 0, i32 0
  %10 = load ptr, ptr %9, align 8, !tbaa !38
  store ptr %10, ptr %7, align 8, !tbaa !3
  %11 = load i32, ptr %6, align 4, !tbaa !32
  %12 = load ptr, ptr %7, align 8, !tbaa !3
  %13 = getelementptr inbounds nuw %"struct.lean::udp_send_data", ptr %12, i32 0, i32 0
  %14 = load ptr, ptr %13, align 8, !tbaa !44
  call void @_ZN4lean30lean_promise_resolve_with_codeEiP11lean_object(i32 noundef %11, ptr noundef %14)
  %15 = load ptr, ptr %7, align 8, !tbaa !3
  %16 = getelementptr inbounds nuw %"struct.lean::udp_send_data", ptr %15, i32 0, i32 0
  %17 = load ptr, ptr %16, align 8, !tbaa !44
  call void @_ZL8lean_decP11lean_object(ptr noundef %17)
  %18 = load ptr, ptr %7, align 8, !tbaa !3
  %19 = getelementptr inbounds nuw %"struct.lean::udp_send_data", ptr %18, i32 0, i32 2
  %20 = load ptr, ptr %19, align 8, !tbaa !47
  call void @_ZL8lean_decP11lean_object(ptr noundef %20)
  %21 = load ptr, ptr %7, align 8, !tbaa !3
  %22 = getelementptr inbounds nuw %"struct.lean::udp_send_data", ptr %21, i32 0, i32 1
  %23 = load ptr, ptr %22, align 8, !tbaa !46
  call void @_ZL8lean_decP11lean_object(ptr noundef %23)
  %24 = load ptr, ptr %5, align 8, !tbaa !36
  %25 = getelementptr inbounds nuw %struct.uv_udp_send_s, ptr %24, i32 0, i32 0
  %26 = load ptr, ptr %25, align 8, !tbaa !38
  call void @free(ptr noundef %26) #14
  %27 = load ptr, ptr %5, align 8, !tbaa !36
  call void @free(ptr noundef %27) #14
  call void @llvm.lifetime.end.p0(i64 8, ptr %7) #14
  ret void
}

; Function Attrs: inlinehint mustprogress uwtable
define internal void @"_ZZ16lean_uv_udp_sendEN3$_08__invokeEP13uv_udp_send_si"(ptr noundef %0, i32 noundef %1) #7 align 2 {
  %3 = alloca ptr, align 8
  %4 = alloca i32, align 4
  %5 = alloca %class.anon.4, align 1
  store ptr %0, ptr %3, align 8, !tbaa !36
  store i32 %1, ptr %4, align 4, !tbaa !32
  %6 = load ptr, ptr %3, align 8, !tbaa !36
  %7 = load i32, ptr %4, align 4, !tbaa !32
  call void @"_ZZ16lean_uv_udp_sendENK3$_0clEP13uv_udp_send_si"(ptr noundef nonnull align 1 dereferenceable(1) %5, ptr noundef %6, i32 noundef %7)
  ret void
}