; Function Attrs: inlinehint mustprogress uwtable
define internal void @"_ZZ16lean_uv_udp_sendEN3$_08__invokeEP13uv_udp_send_si"(ptr noundef captures(none) %0, i32 noundef %1) #10 align 2 {
  %3 = load ptr, ptr %0, align 8, !tbaa !42
  %4 = load ptr, ptr %3, align 8, !tbaa !48
  tail call void @_ZN4lean30lean_promise_resolve_with_codeEiP11lean_object(i32 noundef %1, ptr noundef %4)
  %5 = load ptr, ptr %3, align 8, !tbaa !48
  %6 = ptrtoint ptr %5 to i64
  %7 = and i64 %6, 1
  %.not.i = icmp eq i64 %7, 0
  br i1 %.not.i, label %8, label %_ZL8lean_decP11lean_object.exit8.i

8:                                                ; preds = %2
  %9 = load i32, ptr %5, align 4, !tbaa !36
  %10 = icmp sgt i32 %9, 1
  br i1 %10, label %11, label %13, !prof !9

11:                                               ; preds = %8
  %12 = add nsw i32 %9, -1
  store i32 %12, ptr %5, align 4, !tbaa !36
  br label %_ZL8lean_decP11lean_object.exit8.i

13:                                               ; preds = %8
  %.not.i.i = icmp eq i32 %9, 0
  br i1 %.not.i.i, label %_ZL8lean_decP11lean_object.exit8.i, label %14

14:                                               ; preds = %13
  tail call void @lean_dec_ref_cold(ptr noundef nonnull %5)
  br label %_ZL8lean_decP11lean_object.exit8.i

_ZL8lean_decP11lean_object.exit8.i:               ; preds = %14, %13, %11, %2
  %15 = getelementptr inbounds nuw i8, ptr %3, i64 16
  %16 = load ptr, ptr %15, align 8, !tbaa !51
  %17 = ptrtoint ptr %16 to i64
  %18 = and i64 %17, 1
  %.not1.i = icmp eq i64 %18, 0
  br i1 %.not1.i, label %19, label %_ZL8lean_decP11lean_object.exit7.i

19:                                               ; preds = %_ZL8lean_decP11lean_object.exit8.i
  %20 = load i32, ptr %16, align 4, !tbaa !36
  %21 = icmp sgt i32 %20, 1
  br i1 %21, label %22, label %24, !prof !9

22:                                               ; preds = %19
  %23 = add nsw i32 %20, -1
  store i32 %23, ptr %16, align 4, !tbaa !36
  br label %_ZL8lean_decP11lean_object.exit7.i

24:                                               ; preds = %19
  %.not.i9.i = icmp eq i32 %20, 0
  br i1 %.not.i9.i, label %_ZL8lean_decP11lean_object.exit7.i, label %25

25:                                               ; preds = %24
  tail call void @lean_dec_ref_cold(ptr noundef nonnull %16)
  br label %_ZL8lean_decP11lean_object.exit7.i

_ZL8lean_decP11lean_object.exit7.i:               ; preds = %25, %24, %22, %_ZL8lean_decP11lean_object.exit8.i
  %26 = getelementptr inbounds nuw i8, ptr %3, i64 8
  %27 = load ptr, ptr %26, align 8, !tbaa !50
  %28 = ptrtoint ptr %27 to i64
  %29 = and i64 %28, 1
  %.not2.i = icmp eq i64 %29, 0
  br i1 %.not2.i, label %30, label %"_ZZ16lean_uv_udp_sendENK3$_0clEP13uv_udp_send_si.exit"

30:                                               ; preds = %_ZL8lean_decP11lean_object.exit7.i
  %31 = load i32, ptr %27, align 4, !tbaa !36
  %32 = icmp sgt i32 %31, 1
  br i1 %32, label %33, label %35, !prof !9

33:                                               ; preds = %30
  %34 = add nsw i32 %31, -1
  store i32 %34, ptr %27, align 4, !tbaa !36
  br label %"_ZZ16lean_uv_udp_sendENK3$_0clEP13uv_udp_send_si.exit"

35:                                               ; preds = %30
  %.not.i11.i = icmp eq i32 %31, 0
  br i1 %.not.i11.i, label %"_ZZ16lean_uv_udp_sendENK3$_0clEP13uv_udp_send_si.exit", label %36

36:                                               ; preds = %35
  tail call void @lean_dec_ref_cold(ptr noundef nonnull %27)
  br label %"_ZZ16lean_uv_udp_sendENK3$_0clEP13uv_udp_send_si.exit"

"_ZZ16lean_uv_udp_sendENK3$_0clEP13uv_udp_send_si.exit": ; preds = %_ZL8lean_decP11lean_object.exit7.i, %33, %35, %36
  %37 = load ptr, ptr %0, align 8, !tbaa !42
  tail call void @free(ptr noundef %37) #15
  tail call void @free(ptr noundef nonnull %0) #15
  ret void
}